target datalayout = "e-m:e-p270:32:32-p271:32:32-p272:64:64-i64:64-i128:128-f80:128-n8:16:32:64-S128"
target triple = "x86_64-pc-linux-gnu"

%struct._address = type { i32, i32, ptr, ptr }
%struct._packet_info = type { ptr, ptr, i32, i32, %struct.nstime_t, %struct.nstime_t, %struct.nstime_t, i8, ptr, ptr, ptr, ptr, %struct._address, %struct._address, %struct._address, %struct._address, %struct._address, %struct._address, i32, ptr, i8, [3 x i8], %struct.anon, i32, i32, i32, i32, ptr, i8, ptr, ptr, i16, i16, i32, i32, i16, i32, i32, ptr, ptr, ptr, i8, i8, i16, i16, i16, i32, i16, i16, ptr, ptr, ptr, ptr, ptr, i32, i32 }
%struct.nstime_t = type { i64, i32 }
%struct.anon = type { i8, [3 x i8] }

@hf_dvbci_req_type = internal global i32 0, align 4
@hf_dvbci_file_hash = internal global i32 0, align 4
@hf_dvbci_file_name = internal global i32 0, align 4
@hf_dvbci_ami_priv_data = internal global i32 0, align 4
@.str.990 = private unnamed_addr constant [3 x i8] c": \00", align 1
@.str.1006 = private unnamed_addr constant [8 x i8] c"unknown\00", align 1
@.str.1020 = private unnamed_addr constant [2 x i8] c" \00", align 1

; Function Attrs: null_pointer_is_valid sspstrong uwtable
define internal void @dissect_dvbci_ami_file_req(ptr noundef %0, i32 noundef %1, ptr noundef %2, ptr noundef %3) #0 {
  %5 = alloca ptr, align 8
  %6 = alloca i32, align 4
  %7 = alloca ptr, align 8
  %8 = alloca ptr, align 8
  %9 = alloca i8, align 1
  %10 = alloca ptr, align 8
  %11 = alloca i32, align 4
  store ptr %0, ptr %5, align 8
  store i32 %1, ptr %6, align 4
  store ptr %2, ptr %7, align 8
  store ptr %3, ptr %8, align 8
  call void @llvm.lifetime.start.p0(i64 1, ptr %9) #11
  call void @llvm.lifetime.start.p0(i64 8, ptr %10) #11
  %12 = load ptr, ptr %5, align 8
  %13 = load i32, ptr %6, align 4
  %14 = call zeroext i8 @tvb_get_uint8(ptr noundef %12, i32 noundef %13)
  store i8 %14, ptr %9, align 1
  %15 = load ptr, ptr %8, align 8
  %16 = load i32, ptr @hf_dvbci_req_type, align 4
  %17 = load ptr, ptr %5, align 8
  %18 = load i32, ptr %6, align 4
  %19 = call ptr @proto_tree_add_item(ptr noundef %15, i32 noundef %16, ptr noundef %17, i32 noundef %18, i32 noundef 1, i32 noundef 0)
  %20 = load ptr, ptr %7, align 8
  %21 = getelementptr inbounds nuw %struct._packet_info, ptr %20, i32 0, i32 1
  %22 = load ptr, ptr %21, align 8
  %23 = load i8, ptr %9, align 1
  %24 = zext i8 %23 to i32
  %25 = call ptr @val_to_str_const(i32 noundef %24, ptr noundef @dvbci_req_type, ptr noundef @.str.1006)
  call void @col_append_sep_str(ptr noundef %22, i32 noundef 25, ptr noundef @.str.990, ptr noundef %25)
  %26 = load i32, ptr %6, align 4
  %27 = add i32 %26, 1
  store i32 %27, ptr %6, align 4
  %28 = load i8, ptr %9, align 1
  %29 = zext i8 %28 to i32
  %30 = icmp eq i32 %29, 2
  br i1 %30, label %31, label %39

31:                                               ; preds = %4
  %32 = load ptr, ptr %8, align 8
  %33 = load i32, ptr @hf_dvbci_file_hash, align 4
  %34 = load ptr, ptr %5, align 8
  %35 = load i32, ptr %6, align 4
  %36 = call ptr @proto_tree_add_item(ptr noundef %32, i32 noundef %33, ptr noundef %34, i32 noundef %35, i32 noundef 16, i32 noundef 0)
  %37 = load i32, ptr %6, align 4
  %38 = add i32 %37, 16
  store i32 %38, ptr %6, align 4
  br label %39

39:                                               ; preds = %31, %4
  %40 = load ptr, ptr %5, align 8
  %41 = load i32, ptr %6, align 4
  %42 = call i32 @tvb_reported_length_remaining(ptr noundef %40, i32 noundef %41)
  %43 = icmp sle i32 %42, 0
  br i1 %43, label %44, label %45

44:                                               ; preds = %39
  store i32 1, ptr %11, align 4
  br label %84

45:                                               ; preds = %39
  %46 = load i8, ptr %9, align 1
  %47 = zext i8 %46 to i32
  %48 = icmp eq i32 %47, 0
  br i1 %48, label %53, label %49

49:                                               ; preds = %45
  %50 = load i8, ptr %9, align 1
  %51 = zext i8 %50 to i32
  %52 = icmp eq i32 %51, 2
  br i1 %52, label %53, label %69

53:                                               ; preds = %49, %45
  %54 = load ptr, ptr %8, align 8
  %55 = load i32, ptr @hf_dvbci_file_name, align 4
  %56 = load ptr, ptr %5, align 8
  %57 = load i32, ptr %6, align 4
  %58 = load ptr, ptr %5, align 8
  %59 = load i32, ptr %6, align 4
  %60 = call i32 @tvb_reported_length_remaining(ptr noundef %58, i32 noundef %59)
  %61 = load ptr, ptr %7, align 8
  %62 = getelementptr inbounds nuw %struct._packet_info, ptr %61, i32 0, i32 51
  %63 = load ptr, ptr %62, align 8
  %64 = call ptr @proto_tree_add_item_ret_string(ptr noundef %54, i32 noundef %55, ptr noundef %56, i32 noundef %57, i32 noundef %60, i32 noundef 0, ptr noundef %63, ptr noundef %10)
  %65 = load ptr, ptr %7, align 8
  %66 = getelementptr inbounds nuw %struct._packet_info, ptr %65, i32 0, i32 1
  %67 = load ptr, ptr %66, align 8
  %68 = load ptr, ptr %10, align 8
  call void @col_append_sep_str(ptr noundef %67, i32 noundef 25, ptr noundef @.str.1020, ptr noundef %68)
  br label %83

69:                                               ; preds = %49
  %70 = load i8, ptr %9, align 1
  %71 = zext i8 %70 to i32
  %72 = icmp eq i32 %71, 1
  br i1 %72, label %73, label %82

73:                                               ; preds = %69
  %74 = load ptr, ptr %8, align 8
  %75 = load i32, ptr @hf_dvbci_ami_priv_data, align 4
  %76 = load ptr, ptr %5, align 8
  %77 = load i32, ptr %6, align 4
  %78 = load ptr, ptr %5, align 8
  %79 = load i32, ptr %6, align 4
  %80 = call i32 @tvb_reported_length_remaining(ptr noundef %78, i32 noundef %79)
  %81 = call ptr @proto_tree_add_item(ptr noundef %74, i32 noundef %75, ptr noundef %76, i32 noundef %77, i32 noundef %80, i32 noundef 0)
  br label %82

82:                                               ; preds = %73, %69
  br label %83

83:                                               ; preds = %82, %53
  store i32 0, ptr %11, align 4
  br label %84

84:                                               ; preds = %83, %44
  call void @llvm.lifetime.end.p0(i64 8, ptr %10) #11
  call void @llvm.lifetime.end.p0(i64 1, ptr %9) #11
  %85 = load i32, ptr %11, align 4
  switch i32 %85, label %87 [
    i32 0, label %86
    i32 1, label %86
  ]

86:                                               ; preds = %84, %84
  ret void

87:                                               ; preds = %84
  unreachable
}