; Function Attrs: null_pointer_is_valid sspstrong uwtable
define internal fastcc void @dissect_dvbci_ami_file_req(ptr noundef %0, i32 noundef %1, ptr noundef readonly captures(none) %2, ptr noundef %3) unnamed_addr #1 {
  %5 = alloca ptr, align 8
  call void @llvm.lifetime.start.p0(i64 8, ptr nonnull %5) #16
  %6 = tail call zeroext i8 @tvb_get_uint8(ptr noundef %0, i32 noundef %1)
  %7 = load i32, ptr @hf_dvbci_req_type, align 4
  %8 = tail call ptr @proto_tree_add_item(ptr noundef %3, i32 noundef %7, ptr noundef %0, i32 noundef %1, i32 noundef 1, i32 noundef 0)
  %9 = getelementptr inbounds nuw i8, ptr %2, i64 8
  %10 = load ptr, ptr %9, align 8
  %11 = zext i8 %6 to i32
  %12 = tail call ptr @val_to_str_const(i32 noundef %11, ptr noundef nonnull @dvbci_req_type, ptr noundef nonnull @.str.1006)
  tail call void @col_append_sep_str(ptr noundef %10, i32 noundef 25, ptr noundef nonnull @.str.990, ptr noundef %12)
  %13 = add i32 %1, 1
  %14 = icmp eq i8 %6, 2
  br i1 %14, label %15, label %19

15:                                               ; preds = %4
  %16 = load i32, ptr @hf_dvbci_file_hash, align 4
  %17 = tail call ptr @proto_tree_add_item(ptr noundef %3, i32 noundef %16, ptr noundef %0, i32 noundef %13, i32 noundef 16, i32 noundef 0)
  %18 = add i32 %1, 17
  br label %19

19:                                               ; preds = %15, %4
  %.0 = phi i32 [ %18, %15 ], [ %13, %4 ]
  %20 = tail call i32 @tvb_reported_length_remaining(ptr noundef %0, i32 noundef %.0)
  %21 = icmp slt i32 %20, 1
  br i1 %21, label %35, label %22

22:                                               ; preds = %19
  switch i8 %6, label %35 [
    i8 2, label %23
    i8 0, label %23
    i8 1, label %31
  ]

23:                                               ; preds = %22, %22
  %24 = load i32, ptr @hf_dvbci_file_name, align 4
  %25 = tail call i32 @tvb_reported_length_remaining(ptr noundef %0, i32 noundef %.0)
  %26 = getelementptr inbounds nuw i8, ptr %2, i64 408
  %27 = load ptr, ptr %26, align 8
  %28 = call ptr @proto_tree_add_item_ret_string(ptr noundef %3, i32 noundef %24, ptr noundef %0, i32 noundef %.0, i32 noundef %25, i32 noundef 0, ptr noundef %27, ptr noundef nonnull %5)
  %29 = load ptr, ptr %9, align 8
  %30 = load ptr, ptr %5, align 8
  call void @col_append_sep_str(ptr noundef %29, i32 noundef 25, ptr noundef nonnull @.str.1020, ptr noundef %30)
  br label %35

31:                                               ; preds = %22
  %32 = load i32, ptr @hf_dvbci_ami_priv_data, align 4
  %33 = tail call i32 @tvb_reported_length_remaining(ptr noundef %0, i32 noundef %.0)
  %34 = tail call ptr @proto_tree_add_item(ptr noundef %3, i32 noundef %32, ptr noundef %0, i32 noundef %.0, i32 noundef %33, i32 noundef 0)
  br label %35

35:                                               ; preds = %23, %31, %22, %19
  call void @llvm.lifetime.end.p0(i64 8, ptr nonnull %5) #16
  ret void
}